target datalayout = "e-m:e-p270:32:32-p271:32:32-p272:64:64-i64:64-i128:128-f80:128-n8:16:32:64-S128"
target triple = "x86_64-unknown-linux-gnu"

@cached_default_info_sections = internal global ptr null, align 8

; Function Attrs: nounwind uwtable
define dso_local void @releaseInfoSectionDict(ptr noundef %sec) #0 {
entry:
  %sec.addr = alloca ptr, align 8
  store ptr %sec, ptr %sec.addr, align 8
  %0 = load ptr, ptr %sec.addr, align 8
  %1 = load ptr, ptr @cached_default_info_sections, align 8
  %cmp = icmp ne ptr %0, %1
  br i1 %cmp, label %if.then, label %if.end

if.then:                                          ; preds = %entry
  %2 = load ptr, ptr %sec.addr, align 8
  call void @dictRelease(ptr noundef %2)
  br label %if.end

if.end:                                           ; preds = %if.then, %entry
  ret void
}