; Function Attrs: nounwind uwtable
define dso_local void @releaseInfoSectionDict(ptr noundef %sec) local_unnamed_addr #0 {
entry:
  %0 = load ptr, ptr @cached_default_info_sections, align 8
  %cmp.not = icmp eq ptr %0, %sec
  br i1 %cmp.not, label %if.end, label %if.then

if.then:                                          ; preds = %entry
  tail call void @dictRelease(ptr noundef %sec) #38
  br label %if.end

if.end:                                           ; preds = %if.then, %entry
  ret void
}